(lp0
(S'broadcast_files_4/broadcast_0'
p1
I988288
tp2
a(S'broadcast_files_4/broadcast_1'
p3
I57184
tp4
a(S'broadcast_files_4/broadcast_10'
p5
I81376
tp6
a(S'broadcast_files_4/broadcast_11'
p7
I57168
tp8
a(S'broadcast_files_4/broadcast_12'
p9
I146997456
tp10
a(S'broadcast_files_4/broadcast_13'
p11
I83504
tp12
a(S'broadcast_files_4/broadcast_14'
p13
I57168
tp14
a(S'broadcast_files_4/broadcast_15'
p15
I146997456
tp16
a(S'broadcast_files_4/broadcast_16'
p17
I85632
tp18
a(S'broadcast_files_4/broadcast_17'
p19
I57168
tp20
a(S'broadcast_files_4/broadcast_18'
p21
I146997456
tp22
a(S'broadcast_files_4/broadcast_19'
p23
I87760
tp24
a(S'broadcast_files_4/broadcast_2'
p25
I46688
tp26
a(S'broadcast_files_4/broadcast_20'
p27
I57168
tp28
a(S'broadcast_files_4/broadcast_21'
p29
I146997456
tp30
a(S'broadcast_files_4/broadcast_22'
p31
I89888
tp32
a(S'broadcast_files_4/broadcast_23'
p33
I57168
tp34
a(S'broadcast_files_4/broadcast_24'
p35
I146997456
tp36
a(S'broadcast_files_4/broadcast_25'
p37
I92016
tp38
a(S'broadcast_files_4/broadcast_26'
p39
I57168
tp40
a(S'broadcast_files_4/broadcast_27'
p41
I146997456
tp42
a(S'broadcast_files_4/broadcast_28'
p43
I94144
tp44
a(S'broadcast_files_4/broadcast_29'
p45
I57168
tp46
a(S'broadcast_files_4/broadcast_3'
p47
I62784
tp48
a(S'broadcast_files_4/broadcast_30'
p49
I146997456
tp50
a(S'broadcast_files_4/broadcast_31'
p51
I96272
tp52
a(S'broadcast_files_4/broadcast_32'
p53
I57168
tp54
a(S'broadcast_files_4/broadcast_33'
p55
I146997456
tp56
a(S'broadcast_files_4/broadcast_4'
p57
I68912
tp58
a(S'broadcast_files_4/broadcast_5'
p59
I57168
tp60
a(S'broadcast_files_4/broadcast_6'
p61
I146997456
tp62
a(S'broadcast_files_4/broadcast_7'
p63
I79248
tp64
a(S'broadcast_files_4/broadcast_8'
p65
I57168
tp66
a(S'broadcast_files_4/broadcast_9'
p67
I146997456
tp68
a.