(lp0
(S'broadcast_files_3/broadcast_0'
p1
I494144
tp2
a(S'broadcast_files_3/broadcast_1'
p3
I28592
tp4
a(S'broadcast_files_3/broadcast_10'
p5
I40688
tp6
a(S'broadcast_files_3/broadcast_11'
p7
I28584
tp8
a(S'broadcast_files_3/broadcast_12'
p9
I73498728
tp10
a(S'broadcast_files_3/broadcast_13'
p11
I41752
tp12
a(S'broadcast_files_3/broadcast_14'
p13
I28584
tp14
a(S'broadcast_files_3/broadcast_15'
p15
I73498728
tp16
a(S'broadcast_files_3/broadcast_16'
p17
I42816
tp18
a(S'broadcast_files_3/broadcast_17'
p19
I28584
tp20
a(S'broadcast_files_3/broadcast_18'
p21
I73498728
tp22
a(S'broadcast_files_3/broadcast_19'
p23
I43880
tp24
a(S'broadcast_files_3/broadcast_2'
p25
I23344
tp26
a(S'broadcast_files_3/broadcast_20'
p27
I28584
tp28
a(S'broadcast_files_3/broadcast_21'
p29
I73498728
tp30
a(S'broadcast_files_3/broadcast_22'
p31
I44944
tp32
a(S'broadcast_files_3/broadcast_23'
p33
I28584
tp34
a(S'broadcast_files_3/broadcast_24'
p35
I73498728
tp36
a(S'broadcast_files_3/broadcast_25'
p37
I46008
tp38
a(S'broadcast_files_3/broadcast_26'
p39
I28584
tp40
a(S'broadcast_files_3/broadcast_27'
p41
I73498728
tp42
a(S'broadcast_files_3/broadcast_28'
p43
I47072
tp44
a(S'broadcast_files_3/broadcast_29'
p45
I28584
tp46
a(S'broadcast_files_3/broadcast_3'
p47
I31392
tp48
a(S'broadcast_files_3/broadcast_30'
p49
I73498728
tp50
a(S'broadcast_files_3/broadcast_31'
p51
I48136
tp52
a(S'broadcast_files_3/broadcast_32'
p53
I28584
tp54
a(S'broadcast_files_3/broadcast_33'
p55
I73498728
tp56
a(S'broadcast_files_3/broadcast_4'
p57
I34456
tp58
a(S'broadcast_files_3/broadcast_5'
p59
I28584
tp60
a(S'broadcast_files_3/broadcast_6'
p61
I73498728
tp62
a(S'broadcast_files_3/broadcast_7'
p63
I39624
tp64
a(S'broadcast_files_3/broadcast_8'
p65
I28584
tp66
a(S'broadcast_files_3/broadcast_9'
p67
I73498728
tp68
a.