(lp0
(S'broadcast_files_2/broadcast_0'
p1
I247072
tp2
a(S'broadcast_files_2/broadcast_1'
p3
I14296
tp4
a(S'broadcast_files_2/broadcast_10'
p5
I20344
tp6
a(S'broadcast_files_2/broadcast_11'
p7
I14292
tp8
a(S'broadcast_files_2/broadcast_12'
p9
I36749364
tp10
a(S'broadcast_files_2/broadcast_13'
p11
I20876
tp12
a(S'broadcast_files_2/broadcast_14'
p13
I14292
tp14
a(S'broadcast_files_2/broadcast_15'
p15
I36749364
tp16
a(S'broadcast_files_2/broadcast_16'
p17
I21408
tp18
a(S'broadcast_files_2/broadcast_17'
p19
I14292
tp20
a(S'broadcast_files_2/broadcast_18'
p21
I36749364
tp22
a(S'broadcast_files_2/broadcast_19'
p23
I21940
tp24
a(S'broadcast_files_2/broadcast_2'
p25
I11672
tp26
a(S'broadcast_files_2/broadcast_20'
p27
I14292
tp28
a(S'broadcast_files_2/broadcast_21'
p29
I36749364
tp30
a(S'broadcast_files_2/broadcast_22'
p31
I22472
tp32
a(S'broadcast_files_2/broadcast_23'
p33
I14292
tp34
a(S'broadcast_files_2/broadcast_24'
p35
I36749364
tp36
a(S'broadcast_files_2/broadcast_25'
p37
I23004
tp38
a(S'broadcast_files_2/broadcast_26'
p39
I14292
tp40
a(S'broadcast_files_2/broadcast_27'
p41
I36749364
tp42
a(S'broadcast_files_2/broadcast_28'
p43
I23536
tp44
a(S'broadcast_files_2/broadcast_29'
p45
I14292
tp46
a(S'broadcast_files_2/broadcast_3'
p47
I15696
tp48
a(S'broadcast_files_2/broadcast_30'
p49
I36749364
tp50
a(S'broadcast_files_2/broadcast_31'
p51
I24068
tp52
a(S'broadcast_files_2/broadcast_32'
p53
I14292
tp54
a(S'broadcast_files_2/broadcast_33'
p55
I36749364
tp56
a(S'broadcast_files_2/broadcast_4'
p57
I17228
tp58
a(S'broadcast_files_2/broadcast_5'
p59
I14292
tp60
a(S'broadcast_files_2/broadcast_6'
p61
I36749364
tp62
a(S'broadcast_files_2/broadcast_7'
p63
I19812
tp64
a(S'broadcast_files_2/broadcast_8'
p65
I14292
tp66
a(S'broadcast_files_2/broadcast_9'
p67
I36749364
tp68
a.