(lp0
(S'broadcast_files_0/broadcast_0'
p1
I61768
tp2
a(S'broadcast_files_0/broadcast_1'
p3
I3574
tp4
a(S'broadcast_files_0/broadcast_10'
p5
I5086
tp6
a(S'broadcast_files_0/broadcast_11'
p7
I3573
tp8
a(S'broadcast_files_0/broadcast_12'
p9
I9187341
tp10
a(S'broadcast_files_0/broadcast_13'
p11
I5219
tp12
a(S'broadcast_files_0/broadcast_14'
p13
I3573
tp14
a(S'broadcast_files_0/broadcast_15'
p15
I9187341
tp16
a(S'broadcast_files_0/broadcast_16'
p17
I5352
tp18
a(S'broadcast_files_0/broadcast_17'
p19
I3573
tp20
a(S'broadcast_files_0/broadcast_18'
p21
I9187341
tp22
a(S'broadcast_files_0/broadcast_19'
p23
I5485
tp24
a(S'broadcast_files_0/broadcast_2'
p25
I2918
tp26
a(S'broadcast_files_0/broadcast_20'
p27
I3573
tp28
a(S'broadcast_files_0/broadcast_21'
p29
I9187341
tp30
a(S'broadcast_files_0/broadcast_22'
p31
I5618
tp32
a(S'broadcast_files_0/broadcast_23'
p33
I3573
tp34
a(S'broadcast_files_0/broadcast_24'
p35
I9187341
tp36
a(S'broadcast_files_0/broadcast_25'
p37
I5751
tp38
a(S'broadcast_files_0/broadcast_26'
p39
I3573
tp40
a(S'broadcast_files_0/broadcast_27'
p41
I9187341
tp42
a(S'broadcast_files_0/broadcast_28'
p43
I5884
tp44
a(S'broadcast_files_0/broadcast_29'
p45
I3573
tp46
a(S'broadcast_files_0/broadcast_3'
p47
I3924
tp48
a(S'broadcast_files_0/broadcast_30'
p49
I9187341
tp50
a(S'broadcast_files_0/broadcast_31'
p51
I6017
tp52
a(S'broadcast_files_0/broadcast_32'
p53
I3573
tp54
a(S'broadcast_files_0/broadcast_33'
p55
I9187341
tp56
a(S'broadcast_files_0/broadcast_4'
p57
I4307
tp58
a(S'broadcast_files_0/broadcast_5'
p59
I3573
tp60
a(S'broadcast_files_0/broadcast_6'
p61
I9187341
tp62
a(S'broadcast_files_0/broadcast_7'
p63
I4953
tp64
a(S'broadcast_files_0/broadcast_8'
p65
I3573
tp66
a(S'broadcast_files_0/broadcast_9'
p67
I9187341
tp68
a.